target datalayout = "e-m:e-p270:32:32-p271:32:32-p272:64:64-i64:64-i128:128-f80:128-n8:16:32:64-S128"
target triple = "x86_64-unknown-linux-gnu"

%struct.QTailQLink = type { ptr, ptr }
%union.QemuInputEventQueueHead = type { %struct.QTailQLink }
%struct.QemuInputEventQueue = type { i32, ptr, i32, ptr, ptr, %union.anon.3 }
%union.anon.3 = type { %struct.QTailQLink }

@kbd_queue = internal global %union.QemuInputEventQueueHead { %struct.QTailQLink { ptr null, ptr @kbd_queue } }, align 8
@queue_count = internal global i32 0, align 4
@queue_limit = internal global i32 1024, align 4
@kbd_timer = internal global ptr null, align 8
@kbd_default_delay_ms = internal global i32 10, align 4

; Function Attrs: nounwind sspstrong uwtable
define internal i64 @qemu_clock_get_ms(i32 noundef %type) #0 {
entry:
  %type.addr = alloca i32, align 4
  store i32 %type, ptr %type.addr, align 4
  %0 = load i32, ptr %type.addr, align 4
  %call = call i64 @qemu_clock_get_ns(i32 noundef %0)
  %div = sdiv i64 %call, 1000000
  ret i64 %div
}

; Function Attrs: nounwind sspstrong uwtable
define internal void @qemu_input_queue_delay(ptr noundef %queue, ptr noundef %timer, i32 noundef %delay_ms) #0 {
entry:
  %queue.addr = alloca ptr, align 8
  %timer.addr = alloca ptr, align 8
  %delay_ms.addr = alloca i32, align 4
  %item = alloca ptr, align 8
  %start_timer = alloca i8, align 1
  store ptr %queue, ptr %queue.addr, align 8
  store ptr %timer, ptr %timer.addr, align 8
  store i32 %delay_ms, ptr %delay_ms.addr, align 4
  %call = call noalias ptr @g_malloc0_n(i64 noundef 1, i64 noundef 56) #7
  store ptr %call, ptr %item, align 8
  %0 = load ptr, ptr %queue.addr, align 8
  %1 = load ptr, ptr %0, align 8
  %cmp = icmp eq ptr %1, null
  %frombool = zext i1 %cmp to i8
  store i8 %frombool, ptr %start_timer, align 1
  %2 = load ptr, ptr %item, align 8
  %type = getelementptr inbounds %struct.QemuInputEventQueue, ptr %2, i32 0, i32 0
  store i32 1, ptr %type, align 8
  %3 = load i32, ptr %delay_ms.addr, align 4
  %4 = load ptr, ptr %item, align 8
  %delay_ms1 = getelementptr inbounds %struct.QemuInputEventQueue, ptr %4, i32 0, i32 2
  store i32 %3, ptr %delay_ms1, align 8
  %5 = load ptr, ptr %timer.addr, align 8
  %6 = load ptr, ptr %item, align 8
  %timer2 = getelementptr inbounds %struct.QemuInputEventQueue, ptr %6, i32 0, i32 1
  store ptr %5, ptr %timer2, align 8
  br label %do.body

do.body:                                          ; preds = %entry
  %7 = load ptr, ptr %item, align 8
  %node = getelementptr inbounds %struct.QemuInputEventQueue, ptr %7, i32 0, i32 5
  store ptr null, ptr %node, align 8
  %8 = load ptr, ptr %queue.addr, align 8
  %tql_prev = getelementptr inbounds %struct.QTailQLink, ptr %8, i32 0, i32 1
  %9 = load ptr, ptr %tql_prev, align 8
  %10 = load ptr, ptr %item, align 8
  %node3 = getelementptr inbounds %struct.QemuInputEventQueue, ptr %10, i32 0, i32 5
  %tql_prev4 = getelementptr inbounds %struct.QTailQLink, ptr %node3, i32 0, i32 1
  store ptr %9, ptr %tql_prev4, align 8
  %11 = load ptr, ptr %item, align 8
  %12 = load ptr, ptr %queue.addr, align 8
  %tql_prev5 = getelementptr inbounds %struct.QTailQLink, ptr %12, i32 0, i32 1
  %13 = load ptr, ptr %tql_prev5, align 8
  %tql_next = getelementptr inbounds %struct.QTailQLink, ptr %13, i32 0, i32 0
  store ptr %11, ptr %tql_next, align 8
  %14 = load ptr, ptr %item, align 8
  %node6 = getelementptr inbounds %struct.QemuInputEventQueue, ptr %14, i32 0, i32 5
  %15 = load ptr, ptr %queue.addr, align 8
  %tql_prev7 = getelementptr inbounds %struct.QTailQLink, ptr %15, i32 0, i32 1
  store ptr %node6, ptr %tql_prev7, align 8
  br label %do.end

do.end:                                           ; preds = %do.body
  %16 = load i32, ptr @queue_count, align 4
  %inc = add i32 %16, 1
  store i32 %inc, ptr @queue_count, align 4
  %17 = load i8, ptr %start_timer, align 1
  %tobool = trunc i8 %17 to i1
  br i1 %tobool, label %if.then, label %if.end

if.then:                                          ; preds = %do.end
  %18 = load ptr, ptr %item, align 8
  %timer8 = getelementptr inbounds %struct.QemuInputEventQueue, ptr %18, i32 0, i32 1
  %19 = load ptr, ptr %timer8, align 8
  %call9 = call i64 @qemu_clock_get_ms(i32 noundef 1)
  %20 = load ptr, ptr %item, align 8
  %delay_ms10 = getelementptr inbounds %struct.QemuInputEventQueue, ptr %20, i32 0, i32 2
  %21 = load i32, ptr %delay_ms10, align 8
  %conv = zext i32 %21 to i64
  %add = add i64 %call9, %conv
  call void @timer_mod(ptr noundef %19, i64 noundef %add)
  br label %if.end

if.end:                                           ; preds = %if.then, %do.end
  ret void
}

; Function Attrs: nounwind sspstrong uwtable
define internal ptr @timer_new_full(ptr noundef %timer_list_group, i32 noundef %type, i32 noundef %scale, i32 noundef %attributes, ptr noundef %cb, ptr noundef %opaque) #0 {
entry:
  %timer_list_group.addr = alloca ptr, align 8
  %type.addr = alloca i32, align 4
  %scale.addr = alloca i32, align 4
  %attributes.addr = alloca i32, align 4
  %cb.addr = alloca ptr, align 8
  %opaque.addr = alloca ptr, align 8
  %ts = alloca ptr, align 8
  store ptr %timer_list_group, ptr %timer_list_group.addr, align 8
  store i32 %type, ptr %type.addr, align 4
  store i32 %scale, ptr %scale.addr, align 4
  store i32 %attributes, ptr %attributes.addr, align 4
  store ptr %cb, ptr %cb.addr, align 8
  store ptr %opaque, ptr %opaque.addr, align 8
  %call = call noalias ptr @g_malloc0_n(i64 noundef 1, i64 noundef 48) #7
  store ptr %call, ptr %ts, align 8
  %0 = load ptr, ptr %ts, align 8
  %1 = load ptr, ptr %timer_list_group.addr, align 8
  %2 = load i32, ptr %type.addr, align 4
  %3 = load i32, ptr %scale.addr, align 4
  %4 = load i32, ptr %attributes.addr, align 4
  %5 = load ptr, ptr %cb.addr, align 8
  %6 = load ptr, ptr %opaque.addr, align 8
  call void @timer_init_full(ptr noundef %0, ptr noundef %1, i32 noundef %2, i32 noundef %3, i32 noundef %4, ptr noundef %5, ptr noundef %6)
  %7 = load ptr, ptr %ts, align 8
  ret ptr %7
}

; Function Attrs: nounwind sspstrong uwtable
define dso_local void @qemu_input_event_send_key_delay(i32 noundef %delay_ms) #0 {
entry:
  %delay_ms.addr = alloca i32, align 4
  store i32 %delay_ms, ptr %delay_ms.addr, align 4
  %call = call zeroext i1 @runstate_is_running()
  br i1 %call, label %if.end, label %land.lhs.true

land.lhs.true:                                    ; preds = %entry
  %call1 = call zeroext i1 @runstate_check(i32 noundef 12)
  br i1 %call1, label %if.end, label %if.then

if.then:                                          ; preds = %land.lhs.true
  br label %if.end7

if.end:                                           ; preds = %land.lhs.true, %entry
  %0 = load ptr, ptr @kbd_timer, align 8
  %tobool = icmp ne ptr %0, null
  br i1 %tobool, label %if.end4, label %if.then2

if.then2:                                         ; preds = %if.end
  %call3 = call ptr @timer_new_full(ptr noundef null, i32 noundef 1, i32 noundef 1000000, i32 noundef 1, ptr noundef @qemu_input_queue_process, ptr noundef @kbd_queue)
  store ptr %call3, ptr @kbd_timer, align 8
  br label %if.end4

if.end4:                                          ; preds = %if.then2, %if.end
  %1 = load i32, ptr @queue_count, align 4
  %2 = load i32, ptr @queue_limit, align 4
  %cmp = icmp ult i32 %1, %2
  br i1 %cmp, label %if.then5, label %if.end7

if.then5:                                         ; preds = %if.end4
  %3 = load ptr, ptr @kbd_timer, align 8
  %4 = load i32, ptr %delay_ms.addr, align 4
  %tobool6 = icmp ne i32 %4, 0
  br i1 %tobool6, label %cond.true, label %cond.false

cond.true:                                        ; preds = %if.then5
  %5 = load i32, ptr %delay_ms.addr, align 4
  br label %cond.end

cond.false:                                       ; preds = %if.then5
  %6 = load i32, ptr @kbd_default_delay_ms, align 4
  br label %cond.end

cond.end:                                         ; preds = %cond.false, %cond.true
  %cond = phi i32 [ %5, %cond.true ], [ %6, %cond.false ]
  call void @qemu_input_queue_delay(ptr noundef @kbd_queue, ptr noundef %3, i32 noundef %cond)
  br label %if.end7

if.end7:                                          ; preds = %cond.end, %if.end4, %if.then
  ret void
}