; Function Attrs: nounwind sspstrong uwtable
define dso_local void @qemu_input_event_send_key_delay(i32 noundef %delay_ms) local_unnamed_addr #0 {
entry:
  %call = tail call zeroext i1 @runstate_is_running() #12
  br i1 %call, label %if.end, label %land.lhs.true

land.lhs.true:                                    ; preds = %entry
  %call1 = tail call zeroext i1 @runstate_check(i32 noundef 12) #12
  br i1 %call1, label %if.end, label %if.end7

if.end:                                           ; preds = %land.lhs.true, %entry
  %0 = load ptr, ptr @kbd_timer, align 8
  %tobool.not = icmp eq ptr %0, null
  br i1 %tobool.not, label %if.then2, label %if.end4

if.then2:                                         ; preds = %if.end
  %call.i = tail call noalias dereferenceable_or_null(48) ptr @g_malloc0_n(i64 noundef 1, i64 noundef 48) #11
  tail call void @timer_init_full(ptr noundef %call.i, ptr noundef null, i32 noundef 1, i32 noundef 1000000, i32 noundef 1, ptr noundef nonnull @qemu_input_queue_process, ptr noundef nonnull @kbd_queue) #12
  store ptr %call.i, ptr @kbd_timer, align 8
  br label %if.end4

if.end4:                                          ; preds = %if.then2, %if.end
  %1 = phi ptr [ %call.i, %if.then2 ], [ %0, %if.end ]
  %2 = load i32, ptr @queue_count, align 4
  %cmp = icmp ult i32 %2, 1024
  br i1 %cmp, label %if.then5, label %if.end7

if.then5:                                         ; preds = %if.end4
  %tobool6.not = icmp eq i32 %delay_ms, 0
  %cond = select i1 %tobool6.not, i32 10, i32 %delay_ms
  %call.i2 = tail call noalias dereferenceable_or_null(56) ptr @g_malloc0_n(i64 noundef 1, i64 noundef 56) #11
  %3 = load ptr, ptr @kbd_queue, align 8
  %cmp.i = icmp eq ptr %3, null
  store i32 1, ptr %call.i2, align 8
  %delay_ms1.i = getelementptr inbounds nuw i8, ptr %call.i2, i64 16
  store i32 %cond, ptr %delay_ms1.i, align 8
  %timer2.i = getelementptr inbounds nuw i8, ptr %call.i2, i64 8
  store ptr %1, ptr %timer2.i, align 8
  %node.i = getelementptr inbounds nuw i8, ptr %call.i2, i64 40
  store ptr null, ptr %node.i, align 8
  %4 = load ptr, ptr getelementptr inbounds nuw (i8, ptr @kbd_queue, i64 8), align 8
  %tql_prev4.i = getelementptr inbounds nuw i8, ptr %call.i2, i64 48
  store ptr %4, ptr %tql_prev4.i, align 8
  store ptr %call.i2, ptr %4, align 8
  store ptr %node.i, ptr getelementptr inbounds nuw (i8, ptr @kbd_queue, i64 8), align 8
  %5 = load i32, ptr @queue_count, align 4
  %inc.i = add i32 %5, 1
  store i32 %inc.i, ptr @queue_count, align 4
  br i1 %cmp.i, label %if.then.i, label %if.end7

if.then.i:                                        ; preds = %if.then5
  %call.i.i = tail call i64 @qemu_clock_get_ns(i32 noundef 1) #12
  %div.i.i = sdiv i64 %call.i.i, 1000000
  %6 = load i32, ptr %delay_ms1.i, align 8
  %conv.i = zext i32 %6 to i64
  %add.i = add nsw i64 %div.i.i, %conv.i
  tail call void @timer_mod(ptr noundef %1, i64 noundef %add.i) #12
  br label %if.end7

if.end7:                                          ; preds = %if.then.i, %if.then5, %land.lhs.true, %if.end4
  ret void
}